target datalayout = "e-m:e-p270:32:32-p271:32:32-p272:64:64-i64:64-i128:128-f80:128-n8:16:32:64-S128"
target triple = "x86_64-pc-linux-gnu"

%struct.ARKodeMemRec = type { ptr, double, ptr, i32, i32, double, double, ptr, i32, double, ptr, i32, i32, ptr, ptr, i32, ptr, ptr, i32, ptr, ptr, ptr, ptr, ptr, ptr, ptr, ptr, ptr, ptr, ptr, ptr, ptr, ptr, ptr, i32, ptr, ptr, i32, ptr, i32, ptr, ptr, ptr, ptr, ptr, ptr, ptr, ptr, ptr, ptr, ptr, ptr, ptr, ptr, ptr, ptr, ptr, ptr, ptr, ptr, ptr, ptr, ptr, ptr, ptr, ptr, i32, ptr, ptr, ptr, ptr, ptr, ptr, ptr, i32, ptr, ptr, ptr, i32, ptr, ptr, ptr, ptr, ptr, ptr, ptr, i32, i32, i32, i32, double, double, double, double, double, double, double, double, double, double, i32, ptr, i64, i32, i32, i32, i32, i64, i64, i32, i64, i64, i64, i64, i64, i64, i64, double, double, double, double, double, i32, double, double, i32, i32, i32, i32, i32, i32, i32, i32, ptr, i32, ptr, ptr, ptr, ptr, i32, i32, i32 }

@.str = private unnamed_addr constant [115 x i8] c"generated/home/dtcxzyw/WorkSpace/Projects/compilers/llvm-opt-benchmark/bench/sundials/sundials/src/arkode/arkode.c\00", align 1
@.str.135 = private unnamed_addr constant [28 x i8] c"ARKodeMem structure is NULL\00", align 1
@.str.136 = private unnamed_addr constant [34 x i8] c"ARKodeInterpMem structure is NULL\00", align 1
@__func__.arkPredict_Bootstrap = private unnamed_addr constant [21 x i8] c"arkPredict_Bootstrap\00", align 1

; Function Attrs: nounwind uwtable
define i32 @arkPredict_Bootstrap(ptr noundef %0, double noundef %1, double noundef %2, i32 noundef %3, ptr noundef %4, ptr noundef %5, ptr noundef %6) #0 {
  %8 = alloca i32, align 4
  %9 = alloca ptr, align 8
  %10 = alloca double, align 8
  %11 = alloca double, align 8
  %12 = alloca i32, align 4
  %13 = alloca ptr, align 8
  %14 = alloca ptr, align 8
  %15 = alloca ptr, align 8
  %16 = alloca double, align 8
  %17 = alloca double, align 8
  %18 = alloca double, align 8
  %19 = alloca i32, align 4
  %20 = alloca i32, align 4
  %21 = alloca i32, align 4
  store ptr %0, ptr %9, align 8, !tbaa !11
  store double %1, ptr %10, align 8, !tbaa !9
  store double %2, ptr %11, align 8, !tbaa !9
  store i32 %3, ptr %12, align 4, !tbaa !38
  store ptr %4, ptr %13, align 8, !tbaa !104
  store ptr %5, ptr %14, align 8, !tbaa !89
  store ptr %6, ptr %15, align 8, !tbaa !7
  call void @llvm.lifetime.start.p0(i64 8, ptr %16) #10
  call void @llvm.lifetime.start.p0(i64 8, ptr %17) #10
  call void @llvm.lifetime.start.p0(i64 8, ptr %18) #10
  call void @llvm.lifetime.start.p0(i64 4, ptr %19) #10
  call void @llvm.lifetime.start.p0(i64 4, ptr %20) #10
  %22 = load ptr, ptr %9, align 8, !tbaa !11
  %23 = icmp eq ptr %22, null
  br i1 %23, label %24, label %25

24:                                               ; preds = %7
  call void (ptr, i32, i32, ptr, ptr, ptr, ...) @arkProcessError(ptr noundef null, i32 noundef -21, i32 noundef 3075, ptr noundef @__func__.arkPredict_Bootstrap, ptr noundef @.str, ptr noundef @.str.135)
  store i32 -21, ptr %8, align 4
  store i32 1, ptr %21, align 4
  br label %99

25:                                               ; preds = %7
  %26 = load ptr, ptr %9, align 8, !tbaa !11
  %27 = getelementptr inbounds nuw %struct.ARKodeMemRec, ptr %26, i32 0, i32 85
  %28 = load ptr, ptr %27, align 8, !tbaa !39
  %29 = icmp eq ptr %28, null
  br i1 %29, label %30, label %32

30:                                               ; preds = %25
  %31 = load ptr, ptr %9, align 8, !tbaa !11
  call void (ptr, i32, i32, ptr, ptr, ptr, ...) @arkProcessError(ptr noundef %31, i32 noundef -21, i32 noundef 3081, ptr noundef @__func__.arkPredict_Bootstrap, ptr noundef @.str, ptr noundef @.str.136)
  store i32 -21, ptr %8, align 4
  store i32 1, ptr %21, align 4
  br label %99

32:                                               ; preds = %25
  store double 1.000000e+00, ptr %16, align 8, !tbaa !9
  %33 = load double, ptr %11, align 8, !tbaa !9
  %34 = load double, ptr %11, align 8, !tbaa !9
  %35 = fmul double %33, %34
  %36 = fdiv double %35, 2.000000e+00
  %37 = load double, ptr %10, align 8, !tbaa !9
  %38 = fdiv double %36, %37
  store double %38, ptr %18, align 8, !tbaa !9
  %39 = load double, ptr %11, align 8, !tbaa !9
  %40 = load double, ptr %18, align 8, !tbaa !9
  %41 = fsub double %39, %40
  store double %41, ptr %17, align 8, !tbaa !9
  store i32 0, ptr %19, align 4, !tbaa !38
  br label %42

42:                                               ; preds = %69, %32
  %43 = load i32, ptr %19, align 4, !tbaa !38
  %44 = load i32, ptr %12, align 4, !tbaa !38
  %45 = icmp slt i32 %43, %44
  br i1 %45, label %46, label %72

46:                                               ; preds = %42
  %47 = load double, ptr %18, align 8, !tbaa !9
  %48 = load ptr, ptr %13, align 8, !tbaa !104
  %49 = load i32, ptr %19, align 4, !tbaa !38
  %50 = sext i32 %49 to i64
  %51 = getelementptr inbounds double, ptr %48, i64 %50
  %52 = load double, ptr %51, align 8, !tbaa !9
  %53 = fmul double %47, %52
  %54 = load ptr, ptr %13, align 8, !tbaa !104
  %55 = load i32, ptr %19, align 4, !tbaa !38
  %56 = add nsw i32 2, %55
  %57 = sext i32 %56 to i64
  %58 = getelementptr inbounds double, ptr %54, i64 %57
  store double %53, ptr %58, align 8, !tbaa !9
  %59 = load ptr, ptr %14, align 8, !tbaa !89
  %60 = load i32, ptr %19, align 4, !tbaa !38
  %61 = sext i32 %60 to i64
  %62 = getelementptr inbounds ptr, ptr %59, i64 %61
  %63 = load ptr, ptr %62, align 8, !tbaa !7
  %64 = load ptr, ptr %14, align 8, !tbaa !89
  %65 = load i32, ptr %19, align 4, !tbaa !38
  %66 = add nsw i32 2, %65
  %67 = sext i32 %66 to i64
  %68 = getelementptr inbounds ptr, ptr %64, i64 %67
  store ptr %63, ptr %68, align 8, !tbaa !7
  br label %69

69:                                               ; preds = %46
  %70 = load i32, ptr %19, align 4, !tbaa !38
  %71 = add nsw i32 %70, 1
  store i32 %71, ptr %19, align 4, !tbaa !38
  br label %42

72:                                               ; preds = %42
  %73 = load double, ptr %16, align 8, !tbaa !9
  %74 = load ptr, ptr %13, align 8, !tbaa !104
  %75 = getelementptr inbounds double, ptr %74, i64 0
  store double %73, ptr %75, align 8, !tbaa !9
  %76 = load ptr, ptr %9, align 8, !tbaa !11
  %77 = getelementptr inbounds nuw %struct.ARKodeMemRec, ptr %76, i32 0, i32 76
  %78 = load ptr, ptr %77, align 8, !tbaa !40
  %79 = load ptr, ptr %14, align 8, !tbaa !89
  %80 = getelementptr inbounds ptr, ptr %79, i64 0
  store ptr %78, ptr %80, align 8, !tbaa !7
  %81 = load double, ptr %17, align 8, !tbaa !9
  %82 = load ptr, ptr %13, align 8, !tbaa !104
  %83 = getelementptr inbounds double, ptr %82, i64 1
  store double %81, ptr %83, align 8, !tbaa !9
  %84 = load ptr, ptr %9, align 8, !tbaa !11
  %85 = getelementptr inbounds nuw %struct.ARKodeMemRec, ptr %84, i32 0, i32 77
  %86 = load ptr, ptr %85, align 8, !tbaa !133
  %87 = load ptr, ptr %14, align 8, !tbaa !89
  %88 = getelementptr inbounds ptr, ptr %87, i64 1
  store ptr %86, ptr %88, align 8, !tbaa !7
  %89 = load i32, ptr %12, align 4, !tbaa !38
  %90 = add nsw i32 %89, 2
  %91 = load ptr, ptr %13, align 8, !tbaa !104
  %92 = load ptr, ptr %14, align 8, !tbaa !89
  %93 = load ptr, ptr %15, align 8, !tbaa !7
  %94 = call i32 @N_VLinearCombination(i32 noundef %90, ptr noundef %91, ptr noundef %92, ptr noundef %93)
  store i32 %94, ptr %20, align 4, !tbaa !38
  %95 = load i32, ptr %20, align 4, !tbaa !38
  %96 = icmp ne i32 %95, 0
  br i1 %96, label %97, label %98

97:                                               ; preds = %72
  store i32 -28, ptr %8, align 4
  store i32 1, ptr %21, align 4
  br label %99

98:                                               ; preds = %72
  store i32 0, ptr %8, align 4
  store i32 1, ptr %21, align 4
  br label %99

99:                                               ; preds = %98, %97, %30, %24
  call void @llvm.lifetime.end.p0(i64 4, ptr %20) #10
  call void @llvm.lifetime.end.p0(i64 4, ptr %19) #10
  call void @llvm.lifetime.end.p0(i64 8, ptr %18) #10
  call void @llvm.lifetime.end.p0(i64 8, ptr %17) #10
  call void @llvm.lifetime.end.p0(i64 8, ptr %16) #10
  %100 = load i32, ptr %8, align 4
  ret i32 %100
}