; Function Attrs: nounwind uwtable
define range(i32 -28, 1) i32 @arkPredict_Bootstrap(ptr noundef captures(address_is_null) %0, double noundef %1, double noundef %2, i32 noundef %3, ptr noundef %4, ptr noundef %5, ptr noundef %6) local_unnamed_addr #0 {
  %8 = icmp eq ptr %0, null
  br i1 %8, label %9, label %10

9:                                                ; preds = %7
  tail call void (ptr, i32, i32, ptr, ptr, ptr, ...) @arkProcessError(ptr noundef null, i32 noundef -21, i32 noundef 3075, ptr noundef nonnull @__func__.arkPredict_Bootstrap, ptr noundef nonnull @.str, ptr noundef nonnull @.str.135)
  br label %37

10:                                               ; preds = %7
  %11 = getelementptr inbounds nuw i8, ptr %0, i64 664
  %12 = load ptr, ptr %11, align 8, !tbaa !33
  %13 = icmp eq ptr %12, null
  br i1 %13, label %14, label %15

14:                                               ; preds = %10
  tail call void (ptr, i32, i32, ptr, ptr, ptr, ...) @arkProcessError(ptr noundef nonnull %0, i32 noundef -21, i32 noundef 3081, ptr noundef nonnull @__func__.arkPredict_Bootstrap, ptr noundef nonnull @.str, ptr noundef nonnull @.str.136)
  br label %37

15:                                               ; preds = %10
  %16 = fmul double %2, %2
  %17 = fmul double %16, 5.000000e-01
  %18 = fdiv double %17, %1
  %19 = fsub double %2, %18
  %20 = icmp sgt i32 %3, 0
  br i1 %20, label %.lr.ph.preheader, label %._crit_edge

.lr.ph.preheader:                                 ; preds = %15
  %wide.trip.count = zext nneg i32 %3 to i64
  br label %.lr.ph

.lr.ph:                                           ; preds = %.lr.ph.preheader, %.lr.ph
  %indvars.iv = phi i64 [ 0, %.lr.ph.preheader ], [ %indvars.iv.next, %.lr.ph ]
  %21 = getelementptr inbounds nuw double, ptr %4, i64 %indvars.iv
  %22 = load double, ptr %21, align 8, !tbaa !113
  %23 = fmul double %18, %22
  %24 = add nuw nsw i64 %indvars.iv, 2
  %25 = getelementptr inbounds nuw double, ptr %4, i64 %24
  store double %23, ptr %25, align 8, !tbaa !113
  %26 = getelementptr inbounds nuw ptr, ptr %5, i64 %indvars.iv
  %27 = load ptr, ptr %26, align 8, !tbaa !52
  %28 = getelementptr inbounds nuw ptr, ptr %5, i64 %24
  store ptr %27, ptr %28, align 8, !tbaa !52
  %indvars.iv.next = add nuw nsw i64 %indvars.iv, 1
  %exitcond.not = icmp eq i64 %indvars.iv.next, %wide.trip.count
  br i1 %exitcond.not, label %._crit_edge, label %.lr.ph

._crit_edge:                                      ; preds = %.lr.ph, %15
  store double 1.000000e+00, ptr %4, align 8, !tbaa !113
  %29 = getelementptr inbounds nuw i8, ptr %0, i64 592
  %30 = load ptr, ptr %29, align 8, !tbaa !34
  store ptr %30, ptr %5, align 8, !tbaa !52
  %31 = getelementptr inbounds nuw i8, ptr %4, i64 8
  store double %19, ptr %31, align 8, !tbaa !113
  %32 = getelementptr inbounds nuw i8, ptr %0, i64 600
  %33 = load ptr, ptr %32, align 8, !tbaa !141
  %34 = getelementptr inbounds nuw i8, ptr %5, i64 8
  store ptr %33, ptr %34, align 8, !tbaa !52
  %35 = add nsw i32 %3, 2
  %36 = tail call i32 @N_VLinearCombination(i32 noundef %35, ptr noundef nonnull %4, ptr noundef nonnull %5, ptr noundef %6) #16
  %.not = icmp eq i32 %36, 0
  %. = select i1 %.not, i32 0, i32 -28
  br label %37

37:                                               ; preds = %._crit_edge, %14, %9
  %.0 = phi i32 [ -21, %9 ], [ -21, %14 ], [ %., %._crit_edge ]
  ret i32 %.0
}